target datalayout = "e-m:e-p270:32:32-p271:32:32-p272:64:64-i64:64-i128:128-f80:128-n8:16:32:64-S128"
target triple = "x86_64-pc-linux-gnu"

%struct.DdManager = type { %struct.DdNode, ptr, ptr, ptr, ptr, ptr, ptr, ptr, i32, i32, double, double, double, i32, i32, i32, i32, i32, i32, ptr, ptr, %struct.DdSubtable, i32, i32, i32, i32, i32, i32, i32, double, i32, i32, i32, ptr, i64, double, i32, ptr, ptr, ptr, ptr, ptr, ptr, ptr, i32, ptr, ptr, ptr, ptr, ptr, ptr, i32, i32, i32, double, i32, i32, i32, i32, double, double, i32, i32, i32, i32, i32, i32, i32, i32, i32, ptr, ptr, i32, i32, i32, i32, i32, i32, ptr, ptr, ptr, ptr, ptr, ptr, ptr, ptr, i32, i64, i64, i64, i32, i64, i64, double, double, double, double, double, double, i32, ptr, ptr, i64 }
%struct.DdNode = type { i32, i32, ptr, %union.anon, i64 }
%union.anon = type { %struct.DdChildren }
%struct.DdChildren = type { ptr, ptr }
%struct.DdSubtable = type { ptr, i32, i32, i32, i32, i32, i32, i32, i32, i32, i32, i32 }

; Function Attrs: nounwind uwtable
define ptr @extraBddChangePolarity(ptr noundef %0, ptr noundef %1, ptr noundef %2) #0 {
  %4 = alloca ptr, align 8
  %5 = alloca ptr, align 8
  %6 = alloca ptr, align 8
  %7 = alloca ptr, align 8
  %8 = alloca ptr, align 8
  %9 = alloca i32, align 4
  %10 = alloca ptr, align 8
  %11 = alloca i32, align 4
  %12 = alloca i32, align 4
  %13 = alloca ptr, align 8
  %14 = alloca ptr, align 8
  %15 = alloca ptr, align 8
  %16 = alloca ptr, align 8
  %17 = alloca ptr, align 8
  %18 = alloca ptr, align 8
  store ptr %0, ptr %5, align 8, !tbaa !3
  store ptr %1, ptr %6, align 8, !tbaa !8
  store ptr %2, ptr %7, align 8, !tbaa !8
  call void @llvm.lifetime.start.p0(i64 8, ptr %8) #10
  %19 = load ptr, ptr %7, align 8, !tbaa !8
  %20 = load ptr, ptr %5, align 8, !tbaa !3
  %21 = getelementptr inbounds nuw %struct.DdManager, ptr %20, i32 0, i32 1
  %22 = load ptr, ptr %21, align 8, !tbaa !41
  %23 = icmp eq ptr %19, %22
  br i1 %23, label %24, label %26

24:                                               ; preds = %3
  %25 = load ptr, ptr %6, align 8, !tbaa !8
  store ptr %25, ptr %4, align 8
  store i32 1, ptr %9, align 4
  br label %237

26:                                               ; preds = %3
  %27 = load ptr, ptr %6, align 8, !tbaa !8
  %28 = ptrtoint ptr %27 to i64
  %29 = and i64 %28, -2
  %30 = inttoptr i64 %29 to ptr
  %31 = getelementptr inbounds nuw %struct.DdNode, ptr %30, i32 0, i32 0
  %32 = load i32, ptr %31, align 8, !tbaa !42
  %33 = icmp eq i32 %32, 2147483647
  br i1 %33, label %34, label %36

34:                                               ; preds = %26
  %35 = load ptr, ptr %6, align 8, !tbaa !8
  store ptr %35, ptr %4, align 8
  store i32 1, ptr %9, align 4
  br label %237

36:                                               ; preds = %26
  %37 = load ptr, ptr %5, align 8, !tbaa !3
  %38 = load ptr, ptr %6, align 8, !tbaa !8
  %39 = load ptr, ptr %7, align 8, !tbaa !8
  %40 = call ptr @cuddCacheLookup2(ptr noundef %37, ptr noundef @extraBddChangePolarity, ptr noundef %38, ptr noundef %39)
  store ptr %40, ptr %8, align 8, !tbaa !8
  %41 = icmp ne ptr %40, null
  br i1 %41, label %42, label %44

42:                                               ; preds = %36
  %43 = load ptr, ptr %8, align 8, !tbaa !8
  store ptr %43, ptr %4, align 8
  store i32 1, ptr %9, align 4
  br label %237

44:                                               ; preds = %36
  call void @llvm.lifetime.start.p0(i64 8, ptr %10) #10
  %45 = load ptr, ptr %6, align 8, !tbaa !8
  %46 = ptrtoint ptr %45 to i64
  %47 = and i64 %46, -2
  %48 = inttoptr i64 %47 to ptr
  store ptr %48, ptr %10, align 8, !tbaa !8
  call void @llvm.lifetime.start.p0(i64 4, ptr %11) #10
  %49 = load ptr, ptr %5, align 8, !tbaa !3
  %50 = getelementptr inbounds nuw %struct.DdManager, ptr %49, i32 0, i32 37
  %51 = load ptr, ptr %50, align 8, !tbaa !53
  %52 = load ptr, ptr %10, align 8, !tbaa !8
  %53 = getelementptr inbounds nuw %struct.DdNode, ptr %52, i32 0, i32 0
  %54 = load i32, ptr %53, align 8, !tbaa !42
  %55 = zext i32 %54 to i64
  %56 = getelementptr inbounds nuw i32, ptr %51, i64 %55
  %57 = load i32, ptr %56, align 4, !tbaa !37
  store i32 %57, ptr %11, align 4, !tbaa !37
  call void @llvm.lifetime.start.p0(i64 4, ptr %12) #10
  %58 = load ptr, ptr %5, align 8, !tbaa !3
  %59 = getelementptr inbounds nuw %struct.DdManager, ptr %58, i32 0, i32 37
  %60 = load ptr, ptr %59, align 8, !tbaa !53
  %61 = load ptr, ptr %7, align 8, !tbaa !8
  %62 = getelementptr inbounds nuw %struct.DdNode, ptr %61, i32 0, i32 0
  %63 = load i32, ptr %62, align 8, !tbaa !42
  %64 = zext i32 %63 to i64
  %65 = getelementptr inbounds nuw i32, ptr %60, i64 %64
  %66 = load i32, ptr %65, align 4, !tbaa !37
  store i32 %66, ptr %12, align 4, !tbaa !37
  %67 = load i32, ptr %12, align 4, !tbaa !37
  %68 = load i32, ptr %11, align 4, !tbaa !37
  %69 = icmp slt i32 %67, %68
  br i1 %69, label %70, label %78

70:                                               ; preds = %44
  %71 = load ptr, ptr %5, align 8, !tbaa !3
  %72 = load ptr, ptr %6, align 8, !tbaa !8
  %73 = load ptr, ptr %7, align 8, !tbaa !8
  %74 = getelementptr inbounds nuw %struct.DdNode, ptr %73, i32 0, i32 3
  %75 = getelementptr inbounds nuw %struct.DdChildren, ptr %74, i32 0, i32 0
  %76 = load ptr, ptr %75, align 8, !tbaa !43
  %77 = call ptr @extraBddChangePolarity(ptr noundef %71, ptr noundef %72, ptr noundef %76)
  store ptr %77, ptr %8, align 8, !tbaa !8
  br label %230

78:                                               ; preds = %44
  call void @llvm.lifetime.start.p0(i64 8, ptr %13) #10
  call void @llvm.lifetime.start.p0(i64 8, ptr %14) #10
  call void @llvm.lifetime.start.p0(i64 8, ptr %15) #10
  call void @llvm.lifetime.start.p0(i64 8, ptr %16) #10
  call void @llvm.lifetime.start.p0(i64 8, ptr %17) #10
  %79 = load ptr, ptr %10, align 8, !tbaa !8
  %80 = load ptr, ptr %6, align 8, !tbaa !8
  %81 = icmp ne ptr %79, %80
  br i1 %81, label %82, label %97

82:                                               ; preds = %78
  %83 = load ptr, ptr %10, align 8, !tbaa !8
  %84 = getelementptr inbounds nuw %struct.DdNode, ptr %83, i32 0, i32 3
  %85 = getelementptr inbounds nuw %struct.DdChildren, ptr %84, i32 0, i32 1
  %86 = load ptr, ptr %85, align 8, !tbaa !43
  %87 = ptrtoint ptr %86 to i64
  %88 = xor i64 %87, 1
  %89 = inttoptr i64 %88 to ptr
  store ptr %89, ptr %15, align 8, !tbaa !8
  %90 = load ptr, ptr %10, align 8, !tbaa !8
  %91 = getelementptr inbounds nuw %struct.DdNode, ptr %90, i32 0, i32 3
  %92 = getelementptr inbounds nuw %struct.DdChildren, ptr %91, i32 0, i32 0
  %93 = load ptr, ptr %92, align 8, !tbaa !43
  %94 = ptrtoint ptr %93 to i64
  %95 = xor i64 %94, 1
  %96 = inttoptr i64 %95 to ptr
  store ptr %96, ptr %16, align 8, !tbaa !8
  br label %106

97:                                               ; preds = %78
  %98 = load ptr, ptr %10, align 8, !tbaa !8
  %99 = getelementptr inbounds nuw %struct.DdNode, ptr %98, i32 0, i32 3
  %100 = getelementptr inbounds nuw %struct.DdChildren, ptr %99, i32 0, i32 1
  %101 = load ptr, ptr %100, align 8, !tbaa !43
  store ptr %101, ptr %15, align 8, !tbaa !8
  %102 = load ptr, ptr %10, align 8, !tbaa !8
  %103 = getelementptr inbounds nuw %struct.DdNode, ptr %102, i32 0, i32 3
  %104 = getelementptr inbounds nuw %struct.DdChildren, ptr %103, i32 0, i32 0
  %105 = load ptr, ptr %104, align 8, !tbaa !43
  store ptr %105, ptr %16, align 8, !tbaa !8
  br label %106

106:                                              ; preds = %97, %82
  %107 = load i32, ptr %11, align 4, !tbaa !37
  %108 = load i32, ptr %12, align 4, !tbaa !37
  %109 = icmp eq i32 %107, %108
  br i1 %109, label %110, label %115

110:                                              ; preds = %106
  %111 = load ptr, ptr %7, align 8, !tbaa !8
  %112 = getelementptr inbounds nuw %struct.DdNode, ptr %111, i32 0, i32 3
  %113 = getelementptr inbounds nuw %struct.DdChildren, ptr %112, i32 0, i32 0
  %114 = load ptr, ptr %113, align 8, !tbaa !43
  store ptr %114, ptr %17, align 8, !tbaa !8
  br label %117

115:                                              ; preds = %106
  %116 = load ptr, ptr %7, align 8, !tbaa !8
  store ptr %116, ptr %17, align 8, !tbaa !8
  br label %117

117:                                              ; preds = %115, %110
  %118 = load ptr, ptr %5, align 8, !tbaa !3
  %119 = load ptr, ptr %15, align 8, !tbaa !8
  %120 = load ptr, ptr %17, align 8, !tbaa !8
  %121 = call ptr @extraBddChangePolarity(ptr noundef %118, ptr noundef %119, ptr noundef %120)
  store ptr %121, ptr %13, align 8, !tbaa !8
  %122 = load ptr, ptr %13, align 8, !tbaa !8
  %123 = icmp eq ptr %122, null
  br i1 %123, label %124, label %125

124:                                              ; preds = %117
  store ptr null, ptr %4, align 8
  store i32 1, ptr %9, align 4
  br label %227

125:                                              ; preds = %117
  %126 = load ptr, ptr %13, align 8, !tbaa !8
  %127 = ptrtoint ptr %126 to i64
  %128 = and i64 %127, -2
  %129 = inttoptr i64 %128 to ptr
  %130 = getelementptr inbounds nuw %struct.DdNode, ptr %129, i32 0, i32 1
  %131 = load i32, ptr %130, align 4, !tbaa !34
  %132 = add i32 %131, 1
  store i32 %132, ptr %130, align 4, !tbaa !34
  %133 = load ptr, ptr %5, align 8, !tbaa !3
  %134 = load ptr, ptr %16, align 8, !tbaa !8
  %135 = load ptr, ptr %17, align 8, !tbaa !8
  %136 = call ptr @extraBddChangePolarity(ptr noundef %133, ptr noundef %134, ptr noundef %135)
  store ptr %136, ptr %14, align 8, !tbaa !8
  %137 = load ptr, ptr %14, align 8, !tbaa !8
  %138 = icmp eq ptr %137, null
  br i1 %138, label %139, label %142

139:                                              ; preds = %125
  %140 = load ptr, ptr %5, align 8, !tbaa !3
  %141 = load ptr, ptr %13, align 8, !tbaa !8
  call void @Cudd_RecursiveDeref(ptr noundef %140, ptr noundef %141)
  store ptr null, ptr %4, align 8
  store i32 1, ptr %9, align 4
  br label %227

142:                                              ; preds = %125
  %143 = load ptr, ptr %14, align 8, !tbaa !8
  %144 = ptrtoint ptr %143 to i64
  %145 = and i64 %144, -2
  %146 = inttoptr i64 %145 to ptr
  %147 = getelementptr inbounds nuw %struct.DdNode, ptr %146, i32 0, i32 1
  %148 = load i32, ptr %147, align 4, !tbaa !34
  %149 = add i32 %148, 1
  store i32 %149, ptr %147, align 4, !tbaa !34
  %150 = load i32, ptr %11, align 4, !tbaa !37
  %151 = load i32, ptr %12, align 4, !tbaa !37
  %152 = icmp eq i32 %150, %151
  br i1 %152, label %153, label %157

153:                                              ; preds = %142
  call void @llvm.lifetime.start.p0(i64 8, ptr %18) #10
  %154 = load ptr, ptr %13, align 8, !tbaa !8
  store ptr %154, ptr %18, align 8, !tbaa !8
  %155 = load ptr, ptr %14, align 8, !tbaa !8
  store ptr %155, ptr %13, align 8, !tbaa !8
  %156 = load ptr, ptr %18, align 8, !tbaa !8
  store ptr %156, ptr %14, align 8, !tbaa !8
  call void @llvm.lifetime.end.p0(i64 8, ptr %18) #10
  br label %157

157:                                              ; preds = %153, %142
  %158 = load ptr, ptr %13, align 8, !tbaa !8
  %159 = load ptr, ptr %14, align 8, !tbaa !8
  %160 = icmp eq ptr %158, %159
  br i1 %160, label %161, label %163

161:                                              ; preds = %157
  %162 = load ptr, ptr %14, align 8, !tbaa !8
  store ptr %162, ptr %8, align 8, !tbaa !8
  br label %212

163:                                              ; preds = %157
  %164 = load ptr, ptr %14, align 8, !tbaa !8
  %165 = ptrtoint ptr %164 to i64
  %166 = and i64 %165, 1
  %167 = trunc i64 %166 to i32
  %168 = icmp ne i32 %167, 0
  br i1 %168, label %169, label %195

169:                                              ; preds = %163
  %170 = load ptr, ptr %5, align 8, !tbaa !3
  %171 = load ptr, ptr %10, align 8, !tbaa !8
  %172 = getelementptr inbounds nuw %struct.DdNode, ptr %171, i32 0, i32 0
  %173 = load i32, ptr %172, align 8, !tbaa !42
  %174 = load ptr, ptr %14, align 8, !tbaa !8
  %175 = ptrtoint ptr %174 to i64
  %176 = xor i64 %175, 1
  %177 = inttoptr i64 %176 to ptr
  %178 = load ptr, ptr %13, align 8, !tbaa !8
  %179 = ptrtoint ptr %178 to i64
  %180 = xor i64 %179, 1
  %181 = inttoptr i64 %180 to ptr
  %182 = call ptr @cuddUniqueInter(ptr noundef %170, i32 noundef %173, ptr noundef %177, ptr noundef %181)
  store ptr %182, ptr %8, align 8, !tbaa !8
  %183 = load ptr, ptr %8, align 8, !tbaa !8
  %184 = icmp eq ptr %183, null
  br i1 %184, label %185, label %190

185:                                              ; preds = %169
  %186 = load ptr, ptr %5, align 8, !tbaa !3
  %187 = load ptr, ptr %13, align 8, !tbaa !8
  call void @Cudd_RecursiveDeref(ptr noundef %186, ptr noundef %187)
  %188 = load ptr, ptr %5, align 8, !tbaa !3
  %189 = load ptr, ptr %14, align 8, !tbaa !8
  call void @Cudd_RecursiveDeref(ptr noundef %188, ptr noundef %189)
  store ptr null, ptr %4, align 8
  store i32 1, ptr %9, align 4
  br label %227

190:                                              ; preds = %169
  %191 = load ptr, ptr %8, align 8, !tbaa !8
  %192 = ptrtoint ptr %191 to i64
  %193 = xor i64 %192, 1
  %194 = inttoptr i64 %193 to ptr
  store ptr %194, ptr %8, align 8, !tbaa !8
  br label %211

195:                                              ; preds = %163
  %196 = load ptr, ptr %5, align 8, !tbaa !3
  %197 = load ptr, ptr %10, align 8, !tbaa !8
  %198 = getelementptr inbounds nuw %struct.DdNode, ptr %197, i32 0, i32 0
  %199 = load i32, ptr %198, align 8, !tbaa !42
  %200 = load ptr, ptr %14, align 8, !tbaa !8
  %201 = load ptr, ptr %13, align 8, !tbaa !8
  %202 = call ptr @cuddUniqueInter(ptr noundef %196, i32 noundef %199, ptr noundef %200, ptr noundef %201)
  store ptr %202, ptr %8, align 8, !tbaa !8
  %203 = load ptr, ptr %8, align 8, !tbaa !8
  %204 = icmp eq ptr %203, null
  br i1 %204, label %205, label %210

205:                                              ; preds = %195
  %206 = load ptr, ptr %5, align 8, !tbaa !3
  %207 = load ptr, ptr %13, align 8, !tbaa !8
  call void @Cudd_RecursiveDeref(ptr noundef %206, ptr noundef %207)
  %208 = load ptr, ptr %5, align 8, !tbaa !3
  %209 = load ptr, ptr %14, align 8, !tbaa !8
  call void @Cudd_RecursiveDeref(ptr noundef %208, ptr noundef %209)
  store ptr null, ptr %4, align 8
  store i32 1, ptr %9, align 4
  br label %227

210:                                              ; preds = %195
  br label %211

211:                                              ; preds = %210, %190
  br label %212

212:                                              ; preds = %211, %161
  %213 = load ptr, ptr %13, align 8, !tbaa !8
  %214 = ptrtoint ptr %213 to i64
  %215 = and i64 %214, -2
  %216 = inttoptr i64 %215 to ptr
  %217 = getelementptr inbounds nuw %struct.DdNode, ptr %216, i32 0, i32 1
  %218 = load i32, ptr %217, align 4, !tbaa !34
  %219 = add i32 %218, -1
  store i32 %219, ptr %217, align 4, !tbaa !34
  %220 = load ptr, ptr %14, align 8, !tbaa !8
  %221 = ptrtoint ptr %220 to i64
  %222 = and i64 %221, -2
  %223 = inttoptr i64 %222 to ptr
  %224 = getelementptr inbounds nuw %struct.DdNode, ptr %223, i32 0, i32 1
  %225 = load i32, ptr %224, align 4, !tbaa !34
  %226 = add i32 %225, -1
  store i32 %226, ptr %224, align 4, !tbaa !34
  store i32 0, ptr %9, align 4
  br label %227

227:                                              ; preds = %212, %205, %185, %139, %124
  call void @llvm.lifetime.end.p0(i64 8, ptr %17) #10
  call void @llvm.lifetime.end.p0(i64 8, ptr %16) #10
  call void @llvm.lifetime.end.p0(i64 8, ptr %15) #10
  call void @llvm.lifetime.end.p0(i64 8, ptr %14) #10
  call void @llvm.lifetime.end.p0(i64 8, ptr %13) #10
  %228 = load i32, ptr %9, align 4
  switch i32 %228, label %236 [
    i32 0, label %229
  ]

229:                                              ; preds = %227
  br label %230

230:                                              ; preds = %229, %70
  %231 = load ptr, ptr %5, align 8, !tbaa !3
  %232 = load ptr, ptr %6, align 8, !tbaa !8
  %233 = load ptr, ptr %7, align 8, !tbaa !8
  %234 = load ptr, ptr %8, align 8, !tbaa !8
  call void @cuddCacheInsert2(ptr noundef %231, ptr noundef @extraBddChangePolarity, ptr noundef %232, ptr noundef %233, ptr noundef %234)
  %235 = load ptr, ptr %8, align 8, !tbaa !8
  store ptr %235, ptr %4, align 8
  store i32 1, ptr %9, align 4
  br label %236

236:                                              ; preds = %230, %227
  call void @llvm.lifetime.end.p0(i64 4, ptr %12) #10
  call void @llvm.lifetime.end.p0(i64 4, ptr %11) #10
  call void @llvm.lifetime.end.p0(i64 8, ptr %10) #10
  br label %237

237:                                              ; preds = %236, %42, %34, %24
  call void @llvm.lifetime.end.p0(i64 8, ptr %8) #10
  %238 = load ptr, ptr %4, align 8
  ret ptr %238
}