; Function Attrs: nounwind uwtable
define ptr @extraBddChangePolarity(ptr noundef %0, ptr noundef %1, ptr noundef %2) #0 {
  %4 = getelementptr inbounds nuw i8, ptr %0, i64 40
  %5 = load ptr, ptr %4, align 8, !tbaa !34
  %6 = icmp eq ptr %2, %5
  br i1 %6, label %.thread, label %7

7:                                                ; preds = %3
  %8 = ptrtoint ptr %1 to i64
  %9 = and i64 %8, -2
  %10 = inttoptr i64 %9 to ptr
  %11 = load i32, ptr %10, align 8, !tbaa !35
  %12 = icmp eq i32 %11, 2147483647
  br i1 %12, label %.thread, label %13

13:                                               ; preds = %7
  %14 = tail call ptr @cuddCacheLookup2(ptr noundef nonnull %0, ptr noundef nonnull @extraBddChangePolarity, ptr noundef %1, ptr noundef %2) #19
  %.not = icmp eq ptr %14, null
  br i1 %.not, label %15, label %.thread

15:                                               ; preds = %13
  %16 = getelementptr inbounds nuw i8, ptr %0, i64 312
  %17 = load ptr, ptr %16, align 8, !tbaa !45
  %18 = load i32, ptr %10, align 8, !tbaa !35
  %19 = zext i32 %18 to i64
  %20 = getelementptr inbounds nuw i32, ptr %17, i64 %19
  %21 = load i32, ptr %20, align 4, !tbaa !31
  %22 = load i32, ptr %2, align 8, !tbaa !35
  %23 = zext i32 %22 to i64
  %24 = getelementptr inbounds nuw i32, ptr %17, i64 %23
  %25 = load i32, ptr %24, align 4, !tbaa !31
  %26 = icmp slt i32 %25, %21
  br i1 %26, label %27, label %31

27:                                               ; preds = %15
  %28 = getelementptr inbounds nuw i8, ptr %2, i64 16
  %29 = load ptr, ptr %28, align 8, !tbaa !36
  %30 = tail call ptr @extraBddChangePolarity(ptr noundef nonnull %0, ptr noundef %1, ptr noundef %29)
  br label %102

31:                                               ; preds = %15
  %.not98 = icmp eq ptr %1, %10
  %32 = getelementptr inbounds nuw i8, ptr %10, i64 16
  %33 = getelementptr inbounds nuw i8, ptr %10, i64 24
  %34 = load ptr, ptr %33, align 8, !tbaa !36
  br i1 %.not98, label %43, label %35

35:                                               ; preds = %31
  %36 = ptrtoint ptr %34 to i64
  %37 = xor i64 %36, 1
  %38 = inttoptr i64 %37 to ptr
  %39 = load ptr, ptr %32, align 8, !tbaa !36
  %40 = ptrtoint ptr %39 to i64
  %41 = xor i64 %40, 1
  %42 = inttoptr i64 %41 to ptr
  br label %45

43:                                               ; preds = %31
  %44 = load ptr, ptr %32, align 8, !tbaa !36
  br label %45

45:                                               ; preds = %43, %35
  %.079 = phi ptr [ %38, %35 ], [ %34, %43 ]
  %.078 = phi ptr [ %42, %35 ], [ %44, %43 ]
  %46 = icmp eq i32 %21, %25
  br i1 %46, label %47, label %50

47:                                               ; preds = %45
  %48 = getelementptr inbounds nuw i8, ptr %2, i64 16
  %49 = load ptr, ptr %48, align 8, !tbaa !36
  br label %50

50:                                               ; preds = %45, %47
  %.077 = phi ptr [ %49, %47 ], [ %2, %45 ]
  %51 = tail call ptr @extraBddChangePolarity(ptr noundef nonnull %0, ptr noundef %.079, ptr noundef %.077)
  %52 = icmp eq ptr %51, null
  br i1 %52, label %.thread, label %53

53:                                               ; preds = %50
  %54 = ptrtoint ptr %51 to i64
  %55 = and i64 %54, -2
  %56 = inttoptr i64 %55 to ptr
  %57 = getelementptr inbounds nuw i8, ptr %56, i64 4
  %58 = load i32, ptr %57, align 4, !tbaa !24
  %59 = add i32 %58, 1
  store i32 %59, ptr %57, align 4, !tbaa !24
  %60 = tail call ptr @extraBddChangePolarity(ptr noundef nonnull %0, ptr noundef %.078, ptr noundef %.077)
  %61 = icmp eq ptr %60, null
  br i1 %61, label %62, label %63

62:                                               ; preds = %53
  tail call void @Cudd_RecursiveDeref(ptr noundef nonnull %0, ptr noundef nonnull %51) #19
  br label %.thread

63:                                               ; preds = %53
  %64 = ptrtoint ptr %60 to i64
  %65 = and i64 %64, -2
  %66 = inttoptr i64 %65 to ptr
  %67 = getelementptr inbounds nuw i8, ptr %66, i64 4
  %68 = load i32, ptr %67, align 4, !tbaa !24
  %69 = add i32 %68, 1
  store i32 %69, ptr %67, align 4, !tbaa !24
  %spec.select = select i1 %46, ptr %60, ptr %51
  %spec.select100 = select i1 %46, ptr %51, ptr %60
  %70 = icmp eq ptr %60, %51
  %.pre = ptrtoint ptr %spec.select100 to i64
  br i1 %70, label %._crit_edge, label %71

71:                                               ; preds = %63
  %72 = and i64 %.pre, 1
  %.not99 = icmp eq i64 %72, 0
  %73 = load i32, ptr %10, align 8, !tbaa !35
  br i1 %.not99, label %87, label %74

74:                                               ; preds = %71
  %75 = and i64 %.pre, -2
  %76 = inttoptr i64 %75 to ptr
  %77 = ptrtoint ptr %spec.select to i64
  %78 = xor i64 %77, 1
  %79 = inttoptr i64 %78 to ptr
  %80 = tail call ptr @cuddUniqueInter(ptr noundef nonnull %0, i32 noundef %73, ptr noundef %76, ptr noundef %79) #19
  %81 = icmp eq ptr %80, null
  br i1 %81, label %82, label %83

82:                                               ; preds = %74
  tail call void @Cudd_RecursiveDeref(ptr noundef nonnull %0, ptr noundef nonnull %spec.select) #19
  tail call void @Cudd_RecursiveDeref(ptr noundef nonnull %0, ptr noundef nonnull %spec.select100) #19
  br label %.thread

83:                                               ; preds = %74
  %84 = ptrtoint ptr %80 to i64
  %85 = xor i64 %84, 1
  %86 = inttoptr i64 %85 to ptr
  br label %._crit_edge

87:                                               ; preds = %71
  %88 = tail call ptr @cuddUniqueInter(ptr noundef nonnull %0, i32 noundef %73, ptr noundef nonnull %spec.select100, ptr noundef nonnull %spec.select) #19
  %89 = icmp eq ptr %88, null
  br i1 %89, label %90, label %._crit_edge

90:                                               ; preds = %87
  tail call void @Cudd_RecursiveDeref(ptr noundef nonnull %0, ptr noundef nonnull %spec.select) #19
  tail call void @Cudd_RecursiveDeref(ptr noundef nonnull %0, ptr noundef nonnull %spec.select100) #19
  br label %.thread

._crit_edge:                                      ; preds = %63, %87, %83
  %.284 = phi ptr [ %88, %87 ], [ %86, %83 ], [ %spec.select100, %63 ]
  %91 = ptrtoint ptr %spec.select to i64
  %92 = and i64 %91, -2
  %93 = inttoptr i64 %92 to ptr
  %94 = getelementptr inbounds nuw i8, ptr %93, i64 4
  %95 = load i32, ptr %94, align 4, !tbaa !24
  %96 = add i32 %95, -1
  store i32 %96, ptr %94, align 4, !tbaa !24
  %97 = and i64 %.pre, -2
  %98 = inttoptr i64 %97 to ptr
  %99 = getelementptr inbounds nuw i8, ptr %98, i64 4
  %100 = load i32, ptr %99, align 4, !tbaa !24
  %101 = add i32 %100, -1
  store i32 %101, ptr %99, align 4, !tbaa !24
  br label %102

102:                                              ; preds = %._crit_edge, %27
  %.082 = phi ptr [ %30, %27 ], [ %.284, %._crit_edge ]
  tail call void @cuddCacheInsert2(ptr noundef nonnull %0, ptr noundef nonnull @extraBddChangePolarity, ptr noundef %1, ptr noundef nonnull %2, ptr noundef %.082) #19
  br label %.thread

.thread:                                          ; preds = %50, %90, %82, %62, %102, %13, %7, %3
  %.0 = phi ptr [ %1, %3 ], [ %1, %7 ], [ %14, %13 ], [ %.082, %102 ], [ null, %62 ], [ null, %82 ], [ null, %90 ], [ null, %50 ]
  ret ptr %.0
}